; Function Attrs: mustprogress uwtable
define void @_ZN5arrow12ArrayBuilder16UnsafeSetNotNullEl(ptr nocapture noundef nonnull align 8 dereferenceable(144) %this, i64 noundef %length) local_unnamed_addr #0 align 2 {
entry:
  %length_ = getelementptr inbounds i8, ptr %this, i64 104
  %0 = load i64, ptr %length_, align 8
  %add = add nsw i64 %0, %length
  store i64 %add, ptr %length_, align 8
  %data_.i.i.i = getelementptr inbounds i8, ptr %this, i64 48
  %1 = load ptr, ptr %data_.i.i.i, align 8
  %bit_length_.i = getelementptr inbounds i8, ptr %this, i64 80
  %2 = load i64, ptr %bit_length_.i, align 8
  tail call void @_ZN5arrow8bit_util9SetBitsToEPhllb(ptr noundef %1, i64 noundef %2, i64 noundef %length, i1 noundef zeroext true)
  %3 = load i64, ptr %bit_length_.i, align 8
  %add4.i = add nsw i64 %3, %length
  store i64 %add4.i, ptr %bit_length_.i, align 8
  ret void
}